Certificate:
    Data:
        Version: 3 (0x2)
        Serial Number:
            3a:21:d3:b3:7d:c5:8c:ca:ee:31:6c:01:e8:4d:d0:e5
    Signature Algorithm: sha256WithRSAEncryption
        Issuer: CN=Easy-RSA CA
        Validity
            Not Before: Nov  3 03:45:19 2017 GMT
            Not After : Nov  1 03:45:19 2027 GMT
        Subject: CN=CLIENTNAME
        Subject Public Key Info:
            Public Key Algorithm: rsaEncryption
                Public-Key: (2048 bit)
                Modulus:
                    00:c4:c5:49:85:bb:a3:d6:4d:4a:e4:cf:9a:99:cf:
                    5f:91:8b:07:01:6a:09:73:87:64:d1:d8:ce:c2:b7:
                    e3:f2:74:fc:bf:2c:b4:17:39:1d:69:c9:f6:99:d8:
                    e7:3f:68:72:49:70:b7:22:04:1e:a1:76:f3:91:90:
                    46:0b:88:09:bc:6f:b7:e8:72:6f:fc:70:1d:86:93:
                    d6:7d:8a:61:8d:45:e0:a0:fd:50:ec:04:16:28:c8:
                    24:05:81:67:42:6f:5a:33:a6:41:6a:ac:60:a2:ec:
                    72:02:90:b1:73:ce:f5:5a:50:3d:eb:f2:91:f4:dd:
                    e4:94:39:4b:9a:cc:50:92:c2:32:bb:3b:a6:c7:b6:
                    8a:6a:45:7a:27:a3:31:80:39:7b:93:a5:7e:6c:a7:
                    fa:c4:87:68:70:5d:dd:c5:d4:1d:4f:eb:c4:d4:fa:
                    95:e6:a6:eb:68:f0:6a:80:f8:0b:29:59:f9:7e:a1:
                    08:fe:7e:09:00:b5:a2:8d:e7:8f:87:74:de:58:17:
                    f0:d0:be:59:b9:d4:f3:08:7a:55:84:fb:5e:c4:63:
                    c4:cb:fd:39:be:9a:25:fa:27:21:f1:89:c7:f3:86:
                    7c:56:d8:33:16:04:c8:61:e4:8e:93:f5:8b:c6:84:
                    6c:68:6e:5a:ae:ba:79:28:2a:a2:b3:42:33:94:b9:
                    f5:e3
                Exponent: 65537 (0x10001)
        X509v3 extensions:
            X509v3 Basic Constraints: 
                CA:FALSE
            X509v3 Subject Key Identifier: 
                C4:C4:02:7C:C2:BC:DE:0F:33:A2:EA:87:A8:8C:5B:B8:65:ED:C5:98
            X509v3 Authority Key Identifier: 
                keyid:16:36:B2:FA:3E:AF:9E:29:07:85:27:97:62:0E:FC:70:05:EC:95:0C
                DirName:/CN=Easy-RSA CA
                serial:B0:5B:67:52:08:D1:AF:BB

            X509v3 Extended Key Usage: 
                TLS Web Client Authentication
            X509v3 Key Usage: 
                Digital Signature
    Signature Algorithm: sha256WithRSAEncryption
         08:fe:27:8f:72:24:08:1c:8d:3d:c9:43:bf:f0:e3:8d:59:01:
         f5:d3:5d:35:d5:d8:44:49:15:ed:2b:3e:15:45:4d:e9:aa:5c:
         a9:b5:be:b9:1e:42:17:c3:04:18:bc:6b:f4:22:23:a6:58:9b:
         0e:3c:31:2e:87:b2:f7:a7:a9:34:5e:c9:c1:e2:f8:67:9c:46:
         b9:50:39:db:83:c2:19:28:d6:21:72:8e:a4:2f:5c:33:1b:84:
         e3:09:98:f4:d2:69:c0:04:ed:28:4a:0b:cd:3c:3f:42:f3:23:
         15:15:c9:04:35:05:de:dd:ea:43:cd:64:b1:b5:96:65:97:1e:
         38:31:0c:6d:8a:6a:94:31:76:64:26:95:cf:40:f1:27:1b:ce:
         80:ec:51:91:a4:29:ab:41:35:ec:f6:69:90:be:ce:45:09:f2:
         6f:2d:bc:58:df:e2:f7:f9:2b:c3:fd:b0:fc:55:56:47:fb:5e:
         94:d3:b7:c6:76:da:57:4e:ad:b4:3f:a7:7b:0b:91:1b:33:b3:
         e2:3a:82:89:ad:57:49:e6:ea:94:23:ed:ac:78:69:f7:ee:a3:
         18:62:0d:11:a9:ac:94:a3:5c:10:54:64:8a:ec:a1:8b:80:68:
         e4:dc:cb:e4:e7:b6:7e:f9:cf:66:e6:f4:32:19:0f:e7:9d:8c:
         69:a3:00:df
-----BEGIN CERTIFICATE-----
MIIDTTCCAjWgAwIBAgIQOiHTs33FjMruMWwB6E3Q5TANBgkqhkiG9w0BAQsFADAW
MRQwEgYDVQQDDAtFYXN5LVJTQSBDQTAeFw0xNzExMDMwMzQ1MTlaFw0yNzExMDEw
MzQ1MTlaMBUxEzARBgNVBAMMCkNMSUVOVE5BTUUwggEiMA0GCSqGSIb3DQEBAQUA
A4IBDwAwggEKAoIBAQDExUmFu6PWTUrkz5qZz1+RiwcBaglzh2TR2M7Ct+PydPy/
LLQXOR1pyfaZ2Oc/aHJJcLciBB6hdvORkEYLiAm8b7focm/8cB2Gk9Z9imGNReCg
/VDsBBYoyCQFgWdCb1ozpkFqrGCi7HICkLFzzvVaUD3r8pH03eSUOUuazFCSwjK7
O6bHtopqRXonozGAOXuTpX5sp/rEh2hwXd3F1B1P68TU+pXmputo8GqA+AspWfl+
oQj+fgkAtaKN54+HdN5YF/DQvlm51PMIelWE+17EY8TL/Tm+miX6JyHxicfzhnxW
2DMWBMhh5I6T9YvGhGxoblquunkoKqKzQjOUufXjAgMBAAGjgZcwgZQwCQYDVR0T
BAIwADAdBgNVHQ4EFgQUxMQCfMK83g8zouqHqIxbuGXtxZgwRgYDVR0jBD8wPYAU
Fjay+j6vnikHhSeXYg78cAXslQyhGqQYMBYxFDASBgNVBAMMC0Vhc3ktUlNBIENB
ggkAsFtnUgjRr7swEwYDVR0lBAwwCgYIKwYBBQUHAwIwCwYDVR0PBAQDAgeAMA0G
CSqGSIb3DQEBCwUAA4IBAQAI/iePciQIHI09yUO/8OONWQH101011dhESRXtKz4V
RU3pqlyptb65HkIXwwQYvGv0IiOmWJsOPDEuh7L3p6k0XsnB4vhnnEa5UDnbg8IZ
KNYhco6kL1wzG4TjCZj00mnABO0oSgvNPD9C8yMVFckENQXe3epDzWSxtZZllx44
MQxtimqUMXZkJpXPQPEnG86A7FGRpCmrQTXs9mmQvs5FCfJvLbxY3+L3+SvD/bD8
VVZH+16U07fGdtpXTq20P6d7C5EbM7PiOoKJrVdJ5uqUI+2seGn37qMYYg0RqayU
o1wQVGSK7KGLgGjk3Mvk57Z++c9m5vQyGQ/nnYxpowDf
-----END CERTIFICATE-----
